(dp0
S'skis'
p1
I131
sS'yellow'
p2
I40
sS'four'
p3
I78
sS'dish'
p4
I223
sS'chair'
p5
I141
sS'milk'
p6
I403
sS'trolley'
p7
I312
sS'apartment'
p8
I381
sS'tv'
p9
I237
sS'suits'
p10
I290
sS'bicycles'
p11
I164
sS'frisbees'
p12
I103
sS'hats'
p13
I340
sS'brown'
p14
I3
sS'garden'
p15
I414
sS'dessert'
p16
I426
sS'kitty'
p17
I416
sS'vase'
p18
I28
sS'spoon'
p19
I297
sS'kitten'
p20
I225
sS'fireplace'
p21
I242
sS'parrot'
p22
I305
sS'snowboards'
p23
I303
sS'subway'
p24
I172
sS'sidewalk'
p25
I100
sS'locomotive'
p26
I81
sS'clothes'
p27
I323
sS'bicycle'
p28
I41
sS'fence'
p29
I276
sS'phones'
p30
I163
sS'sign'
p31
I210
sS'street'
p32
I37
sS'booth'
p33
I112
sS'panda'
p34
I251
sS'drinks'
p35
I306
sS'blue'
p36
I68
sS'cargo'
p37
I114
sS'cupcakes'
p38
I334
sS'clock'
p39
I132
sS'sun'
p40
I335
sS'paddle'
p41
I391
sS'uniform'
p42
I228
sS'poles'
p43
I345
sS'bird'
p44
I137
sS'helmets'
p45
I372
sS'sinks'
p46
I185
sS'tracks'
p47
I266
sS'snack'
p48
I392
sS'sink'
p49
I4
sS'trunk'
p50
I327
sS'trail'
p51
I360
sS'box'
p52
I99
sS'luggage'
p53
I179
sS'leaves'
p54
I230
sS'airport'
p55
I283
sS'apple'
p56
I178
sS'slices'
p57
I320
sS'vest'
p58
I368
sS'baskets'
p59
I427
sS'snowboard'
p60
I76
sS'appliances'
p61
I390
sS'duck'
p62
I52
sS'pony'
p63
I15
sS'tools'
p64
I241
sS'donuts'
p65
I18
sS'two'
p66
I39
sS'camera'
p67
I213
sS'vehicle'
p68
I151
sS'calf'
p69
I321
sS'horses'
p70
I148
sS'door'
p71
I8
sS'chocolate'
p72
I124
sS'phone'
p73
I84
sS'flag'
p74
I376
sS'train'
p75
I61
sS'stick'
p76
I336
sS'benches'
p77
I292
sS'room'
p78
I20
sS'salad'
p79
I165
sS'car'
p80
I14
sS'cap'
p81
I224
sS'cat'
p82
I102
sS'donut'
p83
I64
sS'nine'
p84
I240
sS'can'
p85
I301
sS'seagull'
p86
I116
sS'hamburger'
p87
I291
sS'drawer'
p88
I82
sS'carrot'
p89
I310
sS'urinals'
p90
I351
sS'cows'
p91
I65
sS'airplane'
p92
I74
sS'dress'
p93
I201
sS'hangar'
p94
I396
sS'lamb'
p95
I217
sS'sailboat'
p96
I420
sS'six'
p97
I246
sS'freezer'
p98
I424
sS'machine'
p99
I269
sS'lamp'
p100
I62
sS'elephant'
p101
I2
sS'boats'
p102
I43
sS'scooters'
p103
I202
sS'goat'
p104
I171
sS'pizza'
p105
I58
sS'buildings'
p106
I229
sS'sandwich'
p107
I63
sS'bags'
p108
I234
sS'trees'
p109
I342
sS'vases'
p110
I168
sS'backyard'
p111
I347
sS'classroom'
p112
I429
sS'coat'
p113
I328
sS'wheelchair'
p114
I333
sS'counter'
p115
I186
sS'green'
p116
I89
sS'biplane'
p117
I277
sS'wine'
p118
I216
sS'pans'
p119
I425
sS'office'
p120
I274
sS'motorcycle'
p121
I92
sS'oven'
p122
I95
sS'keyboard'
p123
I149
sS'birds'
p124
I184
sS'backpack'
p125
I272
sS'window'
p126
I109
sS'orange'
p127
I19
sS'apron'
p128
I366
sS'coffee'
p129
I105
sS'oranges'
p130
I157
sS'cupcake'
p131
I281
sS'dock'
p132
I314
sS'walls'
p133
I332
sS'giraffe'
p134
I60
sS'cage'
p135
I94
sS'bank'
p136
I423
sS'bread'
p137
I83
sS'wagon'
p138
I200
sS'meat'
p139
I353
sS'tram'
p140
I329
sS'beach'
p141
I16
sS'vegetable'
p142
I430
sS'tray'
p143
I285
sS'meal'
p144
I280
sS'trailer'
p145
I357
sS'glasses'
p146
I255
sS'trunks'
p147
I401
sS'elephants'
p148
I48
sS'house'
p149
I195
sS'fish'
p150
I119
sS'plant'
p151
I170
sS'entree'
p152
I363
sS'zebra'
p153
I36
sS'flower'
p154
I23
sS'container'
p155
I299
sS'pigeon'
p156
I262
sS'hill'
p157
I187
sS'red'
p158
I9
sS'eagle'
p159
I322
sS'umbrella'
p160
I57
sS'cars'
p161
I86
sS'pug'
p162
I428
sS'cart'
p163
I70
sS'marina'
p164
I397
sS'hydrant'
p165
I34
sS'shelves'
p166
I302
sS'computers'
p167
I215
sS'skateboard'
p168
I176
sS'rack'
p169
I300
sS'museum'
p170
I389
sS'cheese'
p171
I207
sS'urinal'
p172
I113
sS'crib'
p173
I417
sS'one'
p174
I49
sS'ties'
p175
I385
sS'scissors'
p176
I98
sS'cups'
p177
I383
sS'umbrellas'
p178
I111
sS'sheep'
p179
I128
sS'horse'
p180
I107
sS'toy'
p181
I29
sS'ten'
p182
I325
sS'jet'
p183
I42
sS'bears'
p184
I139
sS'pots'
p185
I253
sS'station'
p186
I50
sS'white'
p187
I45
sS'banana'
p188
I167
sS'store'
p189
I259
sS'gear'
p190
I214
sS'shorts'
p191
I211
sS'shelf'
p192
I88
sS'UNK'
p193
I0
sS'holder'
p194
I275
sS'television'
p195
I287
sS'tree'
p196
I77
sS'bed'
p197
I136
sS'dogs'
p198
I162
sS'shower'
p199
I293
sS'stall'
p200
I308
sS'apples'
p201
I147
sS'outdoors'
p202
I250
sS'sculpture'
p203
I1
sS'bridge'
p204
I159
sS'giraffes'
p205
I11
sS'refrigerators'
p206
I319
sS'carrots'
p207
I26
sS'graffiti'
p208
I222
sS'pastry'
p209
I282
sS'breakfast'
p210
I140
sS'mountain'
p211
I31
sS'dishes'
p212
I108
sS'couch'
p213
I143
sS'equipment'
p214
I270
sS'sandwiches'
p215
I220
sS'doors'
p216
I422
sS'truck'
p217
I56
sS'zebras'
p218
I27
sS'track'
p219
I212
sS'cigarette'
p220
I226
sS'eight'
p221
I12
sS'device'
p222
I134
sS'refrigerator'
p223
I199
sS'cellphone'
p224
I13
sS'dog'
p225
I66
sS'pipe'
p226
I307
sS'painting'
p227
I219
sS'shop'
p228
I177
sS'kite'
p229
I75
sS'stove'
p230
I190
sS'hillside'
p231
I138
sS'colors'
p232
I249
sS'freight'
p233
I243
sS'bedroom'
p234
I206
sS'chicken'
p235
I317
sS'blender'
p236
I247
sS'flowers'
p237
I22
sS'scooter'
p238
I289
sS'jar'
p239
I350
sS'terminal'
p240
I410
sS'black'
p241
I6
sS'plate'
p242
I67
sS'sunglasses'
p243
I288
sS'suitcases'
p244
I337
sS'photograph'
p245
I245
sS'bear'
p246
I25
sS'remotes'
p247
I127
sS'seagulls'
p248
I349
sS'gray'
p249
I51
sS'bat'
p250
I54
sS'bar'
p251
I296
sS'motorcycles'
p252
I180
sS'trucks'
p253
I123
sS'bag'
p254
I173
sS'river'
p255
I405
sS'frame'
p256
I415
sS'signs'
p257
I181
sS'seat'
p258
I386
sS'computer'
p259
I59
sS'driveway'
p260
I352
sS'cattle'
p261
I150
sS'barn'
p262
I158
sS'pictures'
p263
I248
sS'outside'
p264
I354
sS'crosswalk'
p265
I374
sS'surfboards'
p266
I24
sS'tent'
p267
I355
sS'screen'
p268
I239
sS'fruits'
p269
I96
sS'toothbrush'
p270
I133
sS'jets'
p271
I294
sS'tub'
p272
I188
sS'kitchen'
p273
I53
sS'guitar'
p274
I399
sS'scene'
p275
I382
sS'cow'
p276
I55
sS'restaurant'
p277
I373
sS'ramp'
p278
I144
sS'restroom'
p279
I273
sS'plants'
p280
I264
sS'doorway'
p281
I145
sS'cakes'
p282
I377
sS'statues'
p283
I418
sS'wall'
p284
I73
sS'pot'
p285
I196
sS'pole'
p286
I338
sS'towels'
p287
I192
sS'table'
p288
I364
sS'goats'
p289
I69
sS'boat'
p290
I35
sS'turkey'
p291
I421
sS'bathroom'
p292
I46
sS'airliner'
p293
I146
sS'three'
p294
I47
sS'beer'
p295
I387
sS'monkey'
p296
I298
sS'stadium'
p297
I316
sS'helicopter'
p298
I331
sS'brick'
p299
I348
sS'containers'
p300
I175
sS'engine'
p301
I142
sS'ram'
p302
I402
sS'airplanes'
p303
I30
sS'laptops'
p304
I258
sS'bull'
p305
I153
sS'case'
p306
I279
sS'basket'
p307
I265
sS'ski'
p308
I388
sS'bathtub'
p309
I344
sS'toothbrushes'
p310
I356
sS'seven'
p311
I189
sS'canoe'
p312
I232
sS'purse'
p313
I256
sS'surface'
p314
I409
sS'ducks'
p315
I17
sS'lambs'
p316
I193
sS'mouse'
p317
I284
sS'helmet'
p318
I326
sS'bottles'
p319
I318
sS'shirt'
p320
I268
sS'paw'
p321
I362
sS'bowl'
p322
I38
sS'shuttle'
p323
I32
sS'plates'
p324
I205
sS'pan'
p325
I183
sS'wheel'
p326
I411
sS'hallway'
p327
I324
sS'ball'
p328
I7
sS'drink'
p329
I359
sS'rail'
p330
I191
sS'fruit'
p331
I166
sS'statue'
p332
I85
sS'broccoli'
p333
I339
sS'surfboard'
p334
I44
sS'lunch'
p335
I393
sS'ingredients'
p336
I384
sS'ocean'
p337
I346
sS'flags'
p338
I244
sS'bottle'
p339
I257
sS'trains'
p340
I198
sS'taxi'
p341
I400
sS'bananas'
p342
I126
sS'laptop'
p343
I21
sS'clocks'
p344
I375
sS'zoo'
p345
I135
sS'toilets'
p346
I370
sS'tablet'
p347
I204
sS'cup'
p348
I209
sS'buses'
p349
I122
sS'sky'
p350
I379
sS'lake'
p351
I365
sS'bench'
p352
I110
sS'hay'
p353
I194
sS'kites'
p354
I104
sS'hat'
p355
I125
sS'skies'
p356
I378
sS'skateboards'
p357
I380
sS'fridge'
p358
I304
sS'boxes'
p359
I260
sS'dryer'
p360
I358
sS'five'
p361
I80
sS'desk'
p362
I120
sS'furniture'
p363
I208
sS'towel'
p364
I341
sS'chairs'
p365
I101
sS'sofa'
p366
I412
sS'grizzly'
p367
I197
sS'glove'
p368
I343
sS'garage'
p369
I236
sS'tower'
p370
I227
sS'toys'
p371
I369
sS'library'
p372
I419
sS'mirror'
p373
I117
sS'candle'
p374
I91
sS'candles'
p375
I295
sS'purple'
p376
I5
sS'pen'
p377
I238
sS'knife'
p378
I115
sS'hose'
p379
I371
sS'highway'
p380
I394
sS'boards'
p381
I33
sS'side'
p382
I267
sS'dinner'
p383
I367
sS'road'
p384
I90
sS'pastries'
p385
I404
sS'owl'
p386
I413
sS'bath'
p387
I218
sS'bats'
p388
I221
sS'racquet'
p389
I156
sS'vegetables'
p390
I161
sS'cats'
p391
I154
sS'suit'
p392
I87
sS'fork'
p393
I309
sS'mountains'
p394
I72
sS'bus'
p395
I106
sS'cabinet'
p396
I129
sS'bun'
p397
I271
sS'walkway'
p398
I406
sS'sailboats'
p399
I263
sS'bucket'
p400
I361
sS'carriage'
p401
I121
sS'suitcase'
p402
I278
sS'cake'
p403
I79
sS'grass'
p404
I97
sS'toilet'
p405
I160
sS'pin'
p406
I231
sS'pie'
p407
I311
sS'ship'
p408
I130
sS'curtain'
p409
I408
sS'jacket'
p410
I152
sS'cabinets'
p411
I261
sS'floor'
p412
I118
sS'roses'
p413
I315
sS'warehouse'
p414
I313
sS'tie'
p415
I10
sS'puppy'
p416
I254
sS'picture'
p417
I233
sS'frisbee'
p418
I71
sS'foil'
p419
I93
sS'slice'
p420
I395
sS'pizzas'
p421
I169
sS'pool'
p422
I330
sS'building'
p423
I155
sS'lane'
p424
I398
sS'remote'
p425
I252
sS'glass'
p426
I235
sS'vehicles'
p427
I286
sS'mask'
p428
I407
sS'beds'
p429
I182
sS'beverage'
p430
I174
sS'platter'
p431
I203
s.